; Function Attrs: mustprogress uwtable
define hidden void @_ZN4cvc58internal6theory5arith21ArithConstantTypeRule11computeTypeEPNS0_11NodeManagerENS0_12NodeTemplateILb0EEEbPSo(ptr dead_on_unwind noalias writable sret(%"class.cvc5::internal::TypeNode") align 8 %0, ptr noundef %1, ptr noundef readonly captures(none) %2, i1 noundef zeroext %3, ptr noundef readnone captures(none) %4) local_unnamed_addr #3 align 2 personality ptr @__gxx_personality_v0 {
  %6 = alloca %"class.cvc5::internal::NodeTemplate", align 8
  %7 = alloca %"class.std::__cxx11::basic_string", align 8
  %8 = alloca %"class.std::allocator.68", align 1
  %9 = load ptr, ptr %2, align 8, !tbaa !14
  %10 = getelementptr inbounds nuw i8, ptr %9, i64 8
  %11 = load i64, ptr %10, align 8
  %12 = and i64 %11, 1023
  %13 = icmp eq i64 %12, 71
  br i1 %13, label %14, label %15

14:                                               ; preds = %5
  tail call void @_ZN4cvc58internal11NodeManager8realTypeEv(ptr dead_on_unwind writable sret(%"class.cvc5::internal::TypeNode") align 8 %0, ptr noundef nonnull align 8 dereferenceable(3560) %1)
  br label %39

15:                                               ; preds = %5
  br i1 %3, label %16, label %38

16:                                               ; preds = %15
  %17 = tail call noundef nonnull align 8 dereferenceable(32) ptr @_ZNK4cvc58internal4expr9NodeValue8getConstINS0_8RationalEEERKT_v(ptr noundef nonnull align 8 dereferenceable(24) %9)
  %18 = getelementptr inbounds nuw i8, ptr %17, i64 16
  %19 = tail call i32 @__gmpz_cmp_ui(ptr noundef nonnull %18, i64 noundef 1) #19
  %20 = icmp eq i32 %19, 0
  br i1 %20, label %38, label %21

21:                                               ; preds = %16
  %22 = tail call ptr @__cxa_allocate_exception(i64 48) #20
  %23 = load ptr, ptr %2, align 8, !tbaa !14
  store ptr %23, ptr %6, align 8, !tbaa !14
  call void @llvm.lifetime.start.p0(i64 1, ptr nonnull %8) #20
  invoke void @_ZNSt7__cxx1112basic_stringIcSt11char_traitsIcESaIcEEC2IS3_EEPKcRKS3_(ptr noundef nonnull align 8 dereferenceable(32) %7, ptr noundef nonnull @.str, ptr noundef nonnull align 1 dereferenceable(1) %8)
          to label %24 unwind label %_ZNSt7__cxx1112basic_stringIcSt11char_traitsIcESaIcEED2Ev.exit.thread

24:                                               ; preds = %21
  invoke void @_ZN4cvc58internal28TypeCheckingExceptionPrivateC1ENS0_12NodeTemplateILb0EEENSt7__cxx1112basic_stringIcSt11char_traitsIcESaIcEEE(ptr noundef nonnull align 8 dereferenceable(48) %22, ptr noundef nonnull %6, ptr noundef nonnull %7)
          to label %25 unwind label %27

25:                                               ; preds = %24
  invoke void @__cxa_throw(ptr nonnull %22, ptr nonnull @_ZTIN4cvc58internal28TypeCheckingExceptionPrivateE, ptr nonnull @_ZN4cvc58internal28TypeCheckingExceptionPrivateD1Ev) #21
          to label %41 unwind label %27

_ZNSt7__cxx1112basic_stringIcSt11char_traitsIcESaIcEED2Ev.exit.thread: ; preds = %21
  %26 = landingpad { ptr, i32 }
          cleanup
  call void @llvm.lifetime.end.p0(i64 1, ptr nonnull %8) #20
  br label %37

27:                                               ; preds = %25, %24
  %.0 = phi i1 [ false, %25 ], [ true, %24 ]
  %28 = landingpad { ptr, i32 }
          cleanup
  %29 = load ptr, ptr %7, align 8, !tbaa !16
  %30 = getelementptr inbounds nuw i8, ptr %7, i64 16
  %31 = icmp eq ptr %29, %30
  br i1 %31, label %_ZNKSt7__cxx1112basic_stringIcSt11char_traitsIcESaIcEE11_M_is_localEv.exit.thread.i.i, label %_ZNSt7__cxx1112basic_stringIcSt11char_traitsIcESaIcEED2Ev.exit

_ZNKSt7__cxx1112basic_stringIcSt11char_traitsIcESaIcEE11_M_is_localEv.exit.thread.i.i: ; preds = %27
  %32 = getelementptr inbounds nuw i8, ptr %7, i64 8
  %33 = load i64, ptr %32, align 8, !tbaa !21
  %34 = icmp ult i64 %33, 16
  call void @llvm.assume(i1 %34)
  call void @llvm.lifetime.end.p0(i64 1, ptr nonnull %8) #20
  br i1 %.0, label %37, label %40

_ZNSt7__cxx1112basic_stringIcSt11char_traitsIcESaIcEED2Ev.exit: ; preds = %27
  %35 = load i64, ptr %30, align 8, !tbaa !22
  %36 = add i64 %35, 1
  call void @_ZdlPvm(ptr noundef %29, i64 noundef %36) #22
  call void @llvm.lifetime.end.p0(i64 1, ptr nonnull %8) #20
  br i1 %.0, label %37, label %40

37:                                               ; preds = %_ZNKSt7__cxx1112basic_stringIcSt11char_traitsIcESaIcEE11_M_is_localEv.exit.thread.i.i, %_ZNSt7__cxx1112basic_stringIcSt11char_traitsIcESaIcEED2Ev.exit.thread, %_ZNSt7__cxx1112basic_stringIcSt11char_traitsIcESaIcEED2Ev.exit
  %.pn11 = phi { ptr, i32 } [ %26, %_ZNSt7__cxx1112basic_stringIcSt11char_traitsIcESaIcEED2Ev.exit.thread ], [ %28, %_ZNSt7__cxx1112basic_stringIcSt11char_traitsIcESaIcEED2Ev.exit ], [ %28, %_ZNKSt7__cxx1112basic_stringIcSt11char_traitsIcESaIcEE11_M_is_localEv.exit.thread.i.i ]
  call void @__cxa_free_exception(ptr %22) #20
  br label %40

38:                                               ; preds = %16, %15
  tail call void @_ZN4cvc58internal11NodeManager11integerTypeEv(ptr dead_on_unwind writable sret(%"class.cvc5::internal::TypeNode") align 8 %0, ptr noundef nonnull align 8 dereferenceable(3560) %1)
  br label %39

39:                                               ; preds = %38, %14
  ret void

40:                                               ; preds = %_ZNKSt7__cxx1112basic_stringIcSt11char_traitsIcESaIcEE11_M_is_localEv.exit.thread.i.i, %_ZNSt7__cxx1112basic_stringIcSt11char_traitsIcESaIcEED2Ev.exit, %37
  %.pn10 = phi { ptr, i32 } [ %28, %_ZNSt7__cxx1112basic_stringIcSt11char_traitsIcESaIcEED2Ev.exit ], [ %.pn11, %37 ], [ %28, %_ZNKSt7__cxx1112basic_stringIcSt11char_traitsIcESaIcEE11_M_is_localEv.exit.thread.i.i ]
  resume { ptr, i32 } %.pn10

41:                                               ; preds = %25
  unreachable
}